; Function Attrs: mustprogress nofree norecurse nosync nounwind willreturn memory(argmem: readwrite) uwtable
define dso_local void @LZ4_resetStreamHC_fast(ptr noundef %0, i32 noundef %1) local_unnamed_addr #5 {
  %3 = getelementptr inbounds nuw i8, ptr %0, i64 262183
  %4 = load i8, ptr %3, align 1, !tbaa !31
  %.not = icmp eq i8 %4, 0
  br i1 %.not, label %9, label %5

5:                                                ; preds = %2
  %6 = ptrtoint ptr %0 to i64
  %7 = and i64 %6, 7
  %.not.i = icmp eq i64 %7, 0
  br i1 %.not.i, label %8, label %LZ4_initStreamHC.exit

8:                                                ; preds = %5
  tail call void @llvm.memset.p0.i64(ptr noundef nonnull align 8 dereferenceable(262192) %0, i8 0, i64 262192, i1 false)
  br label %LZ4_initStreamHC.exit

9:                                                ; preds = %2
  %10 = getelementptr inbounds nuw i8, ptr %0, i64 262144
  %11 = load ptr, ptr %10, align 8, !tbaa !4
  %12 = getelementptr inbounds nuw i8, ptr %0, i64 262152
  %13 = load ptr, ptr %12, align 8, !tbaa !13
  %14 = ptrtoint ptr %11 to i64
  %15 = ptrtoint ptr %13 to i64
  %16 = sub i64 %14, %15
  %17 = trunc i64 %16 to i32
  %18 = getelementptr inbounds nuw i8, ptr %0, i64 262168
  %19 = load i32, ptr %18, align 8, !tbaa !14
  %20 = add i32 %19, %17
  store i32 %20, ptr %18, align 8, !tbaa !14
  %21 = getelementptr inbounds nuw i8, ptr %0, i64 262184
  store ptr null, ptr %21, align 8, !tbaa !32
  tail call void @llvm.memset.p0.i64(ptr noundef nonnull align 8 dereferenceable(16) %10, i8 0, i64 16, i1 false)
  br label %LZ4_initStreamHC.exit

LZ4_initStreamHC.exit:                            ; preds = %8, %5, %9
  %22 = icmp slt i32 %1, 1
  %23 = tail call i32 @llvm.umin.i32(i32 %1, i32 12)
  %24 = trunc nuw nsw i32 %23 to i16
  %25 = select i1 %22, i16 9, i16 %24
  %26 = getelementptr inbounds nuw i8, ptr %0, i64 262180
  store i16 %25, ptr %26, align 4, !tbaa !26
  ret void
}